target datalayout = "e-m:e-p270:32:32-p271:32:32-p272:64:64-i64:64-i128:128-f80:128-n8:16:32:64-S128"
target triple = "x86_64-pc-linux-gnu"

%struct.zstream = type { i64, i64, i64, i64, %struct.z_stream_s, ptr }
%struct.z_stream_s = type { ptr, i32, i64, ptr, i32, i64, ptr, ptr, ptr, ptr, ptr, i32, i64, i64 }
%struct.gzfile = type { %struct.zstream, i64, i32, i32, i64, i64, i64, i64, i32, i32, i64, ptr, ptr, ptr, ptr, i64, i64 }

; Function Attrs: nounwind sspstrong uwtable
define internal void @gzfile_writer_end(ptr noundef %0) #0 {
  %2 = alloca ptr, align 8
  store ptr %0, ptr %2, align 8, !tbaa !57
  %3 = load ptr, ptr %2, align 8, !tbaa !57
  %4 = getelementptr inbounds nuw %struct.gzfile, ptr %3, i32 0, i32 0
  %5 = getelementptr inbounds nuw %struct.zstream, ptr %4, i32 0, i32 0
  %6 = load i64, ptr %5, align 8, !tbaa !59
  %7 = and i64 %6, 8
  %8 = icmp ne i64 %7, 0
  br i1 %8, label %9, label %10

9:                                                ; preds = %1
  br label %22

10:                                               ; preds = %1
  %11 = load ptr, ptr %2, align 8, !tbaa !57
  %12 = getelementptr inbounds nuw %struct.gzfile, ptr %11, i32 0, i32 0
  %13 = getelementptr inbounds nuw %struct.zstream, ptr %12, i32 0, i32 0
  %14 = load i64, ptr %13, align 8, !tbaa !59
  %15 = or i64 %14, 8
  store i64 %15, ptr %13, align 8, !tbaa !59
  %16 = load ptr, ptr %2, align 8, !tbaa !57
  %17 = ptrtoint ptr %16 to i64
  %18 = load ptr, ptr %2, align 8, !tbaa !57
  %19 = getelementptr inbounds nuw %struct.gzfile, ptr %18, i32 0, i32 0
  %20 = ptrtoint ptr %19 to i64
  %21 = call i64 @rb_ensure(ptr noundef @gzfile_writer_end_run, i64 noundef %17, ptr noundef @zstream_ensure_end, i64 noundef %20)
  br label %22

22:                                               ; preds = %10, %9
  ret void
}